; Function Attrs: mustprogress uwtable
define hidden void @_ZN2cv5gimpl17GThreadedExecutor6OutputC2ERNS0_10GraphStateERKSt6vectorINS0_6RcDescESaIS6_EE(ptr noundef nonnull align 8 dereferenceable(104) initializes((0, 40)) %0, ptr noundef nonnull align 8 dereferenceable(936) %1, ptr noundef nonnull align 8 dereferenceable(24) %2) unnamed_addr #3 align 2 personality ptr @__gxx_personality_v0 {
  %4 = getelementptr inbounds nuw i8, ptr %0, i64 8
  tail call void @llvm.memset.p0.i64(ptr noundef nonnull align 8 dereferenceable(24) %4, i8 0, i64 24, i1 false)
  store ptr getelementptr inbounds nuw inrange(-16, 56) (i8, ptr @_ZTVN2cv5gimpl17GThreadedExecutor6OutputE, i64 16), ptr %0, align 8, !tbaa !33
  %5 = getelementptr inbounds nuw i8, ptr %0, i64 32
  store ptr %1, ptr %5, align 8, !tbaa !50
  %6 = getelementptr inbounds nuw i8, ptr %0, i64 40
  %7 = getelementptr inbounds nuw i8, ptr %0, i64 88
  store ptr %7, ptr %6, align 8, !tbaa !90
  %8 = getelementptr inbounds nuw i8, ptr %0, i64 48
  store i64 1, ptr %8, align 8, !tbaa !89
  %9 = getelementptr inbounds nuw i8, ptr %0, i64 56
  %10 = getelementptr inbounds nuw i8, ptr %0, i64 72
  tail call void @llvm.memset.p0.i64(ptr noundef nonnull align 8 dereferenceable(16) %9, i8 0, i64 16, i1 false)
  store float 1.000000e+00, ptr %10, align 8, !tbaa !98
  %11 = getelementptr inbounds nuw i8, ptr %0, i64 80
  %12 = getelementptr inbounds nuw i8, ptr %0, i64 96
  tail call void @llvm.memset.p0.i64(ptr noundef nonnull align 8 dereferenceable(24) %11, i8 0, i64 24, i1 false)
  %13 = invoke noundef nonnull align 8 dereferenceable(24) ptr @_ZNSt6vectorIN2cv5gimpl6RcDescESaIS2_EEaSERKS4_(ptr noundef nonnull align 8 dereferenceable(24) %4, ptr noundef nonnull align 8 dereferenceable(24) %2)
          to label %_ZN2cv5gimpl17GIslandExecutable6IODesc3setERKSt6vectorINS0_6RcDescESaIS4_EE.exit unwind label %14

_ZN2cv5gimpl17GIslandExecutable6IODesc3setERKSt6vectorINS0_6RcDescESaIS4_EE.exit: ; preds = %3
  ret void

14:                                               ; preds = %3
  %15 = landingpad { ptr, i32 }
          cleanup
  %16 = load ptr, ptr %12, align 8, !tbaa !95
  %.not.i = icmp eq ptr %16, null
  br i1 %.not.i, label %_ZNSt15__exception_ptr13exception_ptrD2Ev.exit, label %17

17:                                               ; preds = %14
  tail call void @_ZNSt15__exception_ptr13exception_ptr10_M_releaseEv(ptr noundef nonnull align 8 dereferenceable(8) %12) #26
  br label %_ZNSt15__exception_ptr13exception_ptrD2Ev.exit

_ZNSt15__exception_ptr13exception_ptrD2Ev.exit:   ; preds = %14, %17
  tail call void @_ZNSt13unordered_mapIPKviSt4hashIS1_ESt8equal_toIS1_ESaISt4pairIKS1_iEEED2Ev(ptr noundef nonnull align 8 dereferenceable(56) %6) #26
  tail call void @_ZN2cv5gimpl17GIslandExecutable7IOutputD2Ev(ptr noundef nonnull align 8 dereferenceable(32) %0) #26
  resume { ptr, i32 } %15
}